; Function Attrs: mustprogress uwtable
define noundef i32 @_ZNK6casadi22GetNonzerosParamVector4evalEPPKdPPdPxS4_(ptr nocapture noundef nonnull readonly align 8 dereferenceable(64) %0, ptr nocapture noundef readonly %1, ptr nocapture noundef readonly %2, ptr nocapture readnone %3, ptr nocapture readnone %4) unnamed_addr #3 align 2 {
  %6 = load ptr, ptr %1, align 8
  %7 = getelementptr inbounds i8, ptr %1, i64 8
  %8 = load ptr, ptr %7, align 8
  %9 = load ptr, ptr %2, align 8
  %10 = getelementptr inbounds i8, ptr %0, i64 32
  %11 = getelementptr inbounds i8, ptr %0, i64 40
  %12 = load ptr, ptr %11, align 8
  %13 = load ptr, ptr %10, align 8
  %14 = ptrtoint ptr %12 to i64
  %15 = ptrtoint ptr %13 to i64
  %16 = sub i64 %14, %15
  %17 = ashr exact i64 %16, 3
  %.not.i.i.i = icmp ugt i64 %17, 1
  br i1 %.not.i.i.i, label %_ZNK6casadi6MXNode3depEx.exit, label %18

18:                                               ; preds = %5
  tail call void (ptr, ...) @_ZSt24__throw_out_of_range_fmtPKcz(ptr noundef nonnull @.str.65, i64 noundef 1, i64 noundef %17) #20
  unreachable

_ZNK6casadi6MXNode3depEx.exit:                    ; preds = %5
  %19 = getelementptr inbounds i8, ptr %13, i64 8
  %20 = tail call noundef nonnull align 8 dereferenceable(8) ptr @_ZNK6casadi2MX8sparsityEv(ptr noundef nonnull align 8 dereferenceable(8) %19)
  %21 = tail call noundef i64 @_ZNK6casadi8Sparsity3nnzEv(ptr noundef nonnull align 8 dereferenceable(8) %20)
  %22 = load ptr, ptr %11, align 8
  %23 = load ptr, ptr %10, align 8
  %.not.i.i.i16.not = icmp eq ptr %22, %23
  br i1 %.not.i.i.i16.not, label %24, label %_ZNK6casadi6MXNode3depEx.exit17

24:                                               ; preds = %_ZNK6casadi6MXNode3depEx.exit
  tail call void (ptr, ...) @_ZSt24__throw_out_of_range_fmtPKcz(ptr noundef nonnull @.str.65, i64 noundef 0, i64 noundef 0) #20
  unreachable

_ZNK6casadi6MXNode3depEx.exit17:                  ; preds = %_ZNK6casadi6MXNode3depEx.exit
  %25 = tail call noundef nonnull align 8 dereferenceable(8) ptr @_ZNK6casadi2MX8sparsityEv(ptr noundef nonnull align 8 dereferenceable(8) %23)
  %26 = tail call noundef i64 @_ZNK6casadi8Sparsity3nnzEv(ptr noundef nonnull align 8 dereferenceable(8) %25)
  %27 = icmp sgt i64 %21, 0
  br i1 %27, label %.lr.ph, label %._crit_edge

.lr.ph:                                           ; preds = %_ZNK6casadi6MXNode3depEx.exit17, %36
  %.020 = phi ptr [ %28, %36 ], [ %8, %_ZNK6casadi6MXNode3depEx.exit17 ]
  %.01319 = phi i64 [ %39, %36 ], [ 0, %_ZNK6casadi6MXNode3depEx.exit17 ]
  %.01418 = phi ptr [ %38, %36 ], [ %9, %_ZNK6casadi6MXNode3depEx.exit17 ]
  %28 = getelementptr inbounds i8, ptr %.020, i64 8
  %29 = load double, ptr %.020, align 8
  %30 = fptosi double %29 to i64
  %31 = icmp sgt i64 %30, -1
  %32 = icmp sgt i64 %26, %30
  %or.cond = and i1 %31, %32
  br i1 %or.cond, label %33, label %36

33:                                               ; preds = %.lr.ph
  %34 = getelementptr inbounds double, ptr %6, i64 %30
  %35 = load double, ptr %34, align 8
  br label %36

36:                                               ; preds = %.lr.ph, %33
  %37 = phi double [ %35, %33 ], [ 0x7FF8000000000000, %.lr.ph ]
  %38 = getelementptr inbounds i8, ptr %.01418, i64 8
  store double %37, ptr %.01418, align 8
  %39 = add nuw nsw i64 %.01319, 1
  %exitcond.not = icmp eq i64 %39, %21
  br i1 %exitcond.not, label %._crit_edge, label %.lr.ph, !llvm.loop !18

._crit_edge:                                      ; preds = %36, %_ZNK6casadi6MXNode3depEx.exit17
  ret i32 0
}